target datalayout = "e-m:e-p270:32:32-p271:32:32-p272:64:64-i64:64-i128:128-f80:128-n8:16:32:64-S128"
target triple = "x86_64-unknown-linux-gnu"

%"class.icu_75::StringMatcher" = type <{ %"class.icu_75::UnicodeFunctor", %"class.icu_75::UnicodeMatcher", %"class.icu_75::UnicodeReplacer", %"class.icu_75::UnicodeString", ptr, i32, i32, i32, [4 x i8] }>
%"class.icu_75::UnicodeFunctor" = type { %"class.icu_75::UObject" }
%"class.icu_75::UObject" = type { ptr }
%"class.icu_75::UnicodeMatcher" = type { ptr }
%"class.icu_75::UnicodeReplacer" = type { ptr }
%"class.icu_75::UnicodeString" = type { %"class.icu_75::Replaceable", %"union.icu_75::UnicodeString::StackBufferOrFields" }
%"class.icu_75::Replaceable" = type { %"class.icu_75::UObject" }
%"union.icu_75::UnicodeString::StackBufferOrFields" = type { %struct.anon.0, [32 x i8] }
%struct.anon.0 = type { i16, i32, i32, ptr }

@_ZTVN6icu_7514UnicodeFunctorE = external unnamed_addr constant { [9 x ptr] }, align 8
@_ZTVN6icu_757UObjectE = external unnamed_addr constant { [5 x ptr] }, align 8
@_ZTVN6icu_7514UnicodeMatcherE = external unnamed_addr constant { [8 x ptr] }, align 8
@_ZTVN6icu_7515UnicodeReplacerE = external unnamed_addr constant { [7 x ptr] }, align 8

; Function Attrs: mustprogress nounwind uwtable
define linkonce_odr void @_ZN6icu_757UObjectC2ERKS0_(ptr noundef nonnull align 8 dereferenceable(8) %this, ptr noundef nonnull align 8 dereferenceable(8) %0) unnamed_addr #0 comdat align 2 {
entry:
  %this.addr = alloca ptr, align 8
  %.addr = alloca ptr, align 8
  store ptr %this, ptr %this.addr, align 8
  store ptr %0, ptr %.addr, align 8
  %this1 = load ptr, ptr %this.addr, align 8
  store ptr getelementptr inbounds ({ [5 x ptr] }, ptr @_ZTVN6icu_757UObjectE, i32 0, i32 0, i32 2), ptr %this1, align 8
  ret void
}

; Function Attrs: mustprogress nounwind uwtable
define linkonce_odr void @_ZN6icu_7515UnicodeReplacerC2ERKS0_(ptr noundef nonnull align 8 dereferenceable(8) %this, ptr noundef nonnull align 8 dereferenceable(8) %0) unnamed_addr #0 comdat align 2 {
entry:
  %this.addr = alloca ptr, align 8
  %.addr = alloca ptr, align 8
  store ptr %this, ptr %this.addr, align 8
  store ptr %0, ptr %.addr, align 8
  %this1 = load ptr, ptr %this.addr, align 8
  store ptr getelementptr inbounds ({ [7 x ptr] }, ptr @_ZTVN6icu_7515UnicodeReplacerE, i32 0, i32 0, i32 2), ptr %this1, align 8
  ret void
}

; Function Attrs: mustprogress nounwind uwtable
define linkonce_odr void @_ZN6icu_7514UnicodeMatcherC2ERKS0_(ptr noundef nonnull align 8 dereferenceable(8) %this, ptr noundef nonnull align 8 dereferenceable(8) %0) unnamed_addr #0 comdat align 2 {
entry:
  %this.addr = alloca ptr, align 8
  %.addr = alloca ptr, align 8
  store ptr %this, ptr %this.addr, align 8
  store ptr %0, ptr %.addr, align 8
  %this1 = load ptr, ptr %this.addr, align 8
  store ptr getelementptr inbounds ({ [8 x ptr] }, ptr @_ZTVN6icu_7514UnicodeMatcherE, i32 0, i32 0, i32 2), ptr %this1, align 8
  ret void
}

; Function Attrs: mustprogress nounwind uwtable
define linkonce_odr void @_ZN6icu_7514UnicodeFunctorC2ERKS0_(ptr noundef nonnull align 8 dereferenceable(8) %this, ptr noundef nonnull align 8 dereferenceable(8) %0) unnamed_addr #0 comdat align 2 {
entry:
  %this.addr = alloca ptr, align 8
  %.addr = alloca ptr, align 8
  store ptr %this, ptr %this.addr, align 8
  store ptr %0, ptr %.addr, align 8
  %this1 = load ptr, ptr %this.addr, align 8
  %1 = load ptr, ptr %.addr, align 8
  call void @_ZN6icu_757UObjectC2ERKS0_(ptr noundef nonnull align 8 dereferenceable(8) %this1, ptr noundef nonnull align 8 dereferenceable(8) %1) #9
  store ptr getelementptr inbounds ({ [9 x ptr] }, ptr @_ZTVN6icu_7514UnicodeFunctorE, i32 0, i32 0, i32 2), ptr %this1, align 8
  ret void
}

; Function Attrs: mustprogress uwtable
define void @_ZN6icu_7513StringMatcherC2ERKS0_(ptr noundef nonnull align 8 dereferenceable(108) %this, ptr noundef nonnull align 8 dereferenceable(108) %o) unnamed_addr #1 align 2 personality ptr @__gxx_personality_v0 {
entry:
  %this.addr = alloca ptr, align 8
  %o.addr = alloca ptr, align 8
  %exn.slot = alloca ptr, align 8
  %ehselector.slot = alloca i32, align 4
  store ptr %this, ptr %this.addr, align 8
  store ptr %o, ptr %o.addr, align 8
  %this1 = load ptr, ptr %this.addr, align 8
  %0 = load ptr, ptr %o.addr, align 8
  call void @_ZN6icu_7514UnicodeFunctorC2ERKS0_(ptr noundef nonnull align 8 dereferenceable(8) %this1, ptr noundef nonnull align 8 dereferenceable(8) %0) #9
  %1 = getelementptr inbounds i8, ptr %this1, i64 8
  %2 = load ptr, ptr %o.addr, align 8
  %add.ptr = getelementptr inbounds i8, ptr %2, i64 8
  call void @_ZN6icu_7514UnicodeMatcherC2ERKS0_(ptr noundef nonnull align 8 dereferenceable(8) %1, ptr noundef nonnull align 8 dereferenceable(8) %add.ptr) #9
  %3 = getelementptr inbounds i8, ptr %this1, i64 16
  %4 = load ptr, ptr %o.addr, align 8
  %add.ptr2 = getelementptr inbounds i8, ptr %4, i64 16
  call void @_ZN6icu_7515UnicodeReplacerC2ERKS0_(ptr noundef nonnull align 8 dereferenceable(8) %3, ptr noundef nonnull align 8 dereferenceable(8) %add.ptr2) #9
  store ptr getelementptr inbounds ({ [16 x ptr], [8 x ptr], [7 x ptr] }, ptr @_ZTVN6icu_7513StringMatcherE, i32 0, i32 0, i32 2), ptr %this1, align 8
  %add.ptr3 = getelementptr inbounds i8, ptr %this1, i64 8
  store ptr getelementptr inbounds ({ [16 x ptr], [8 x ptr], [7 x ptr] }, ptr @_ZTVN6icu_7513StringMatcherE, i32 0, i32 1, i32 2), ptr %add.ptr3, align 8
  %add.ptr4 = getelementptr inbounds i8, ptr %this1, i64 16
  store ptr getelementptr inbounds ({ [16 x ptr], [8 x ptr], [7 x ptr] }, ptr @_ZTVN6icu_7513StringMatcherE, i32 0, i32 2, i32 2), ptr %add.ptr4, align 8
  %pattern = getelementptr inbounds %"class.icu_75::StringMatcher", ptr %this1, i32 0, i32 3
  %5 = load ptr, ptr %o.addr, align 8
  %pattern5 = getelementptr inbounds %"class.icu_75::StringMatcher", ptr %5, i32 0, i32 3
  invoke void @_ZN6icu_7513UnicodeStringC1ERKS0_(ptr noundef nonnull align 8 dereferenceable(64) %pattern, ptr noundef nonnull align 8 dereferenceable(64) %pattern5)
          to label %invoke.cont unwind label %lpad

invoke.cont:                                      ; preds = %entry
  %data = getelementptr inbounds %"class.icu_75::StringMatcher", ptr %this1, i32 0, i32 4
  %6 = load ptr, ptr %o.addr, align 8
  %data6 = getelementptr inbounds %"class.icu_75::StringMatcher", ptr %6, i32 0, i32 4
  %7 = load ptr, ptr %data6, align 8
  store ptr %7, ptr %data, align 8
  %segmentNumber = getelementptr inbounds %"class.icu_75::StringMatcher", ptr %this1, i32 0, i32 5
  %8 = load ptr, ptr %o.addr, align 8
  %segmentNumber7 = getelementptr inbounds %"class.icu_75::StringMatcher", ptr %8, i32 0, i32 5
  %9 = load i32, ptr %segmentNumber7, align 8
  store i32 %9, ptr %segmentNumber, align 8
  %matchStart = getelementptr inbounds %"class.icu_75::StringMatcher", ptr %this1, i32 0, i32 6
  %10 = load ptr, ptr %o.addr, align 8
  %matchStart8 = getelementptr inbounds %"class.icu_75::StringMatcher", ptr %10, i32 0, i32 6
  %11 = load i32, ptr %matchStart8, align 4
  store i32 %11, ptr %matchStart, align 4
  %matchLimit = getelementptr inbounds %"class.icu_75::StringMatcher", ptr %this1, i32 0, i32 7
  %12 = load ptr, ptr %o.addr, align 8
  %matchLimit9 = getelementptr inbounds %"class.icu_75::StringMatcher", ptr %12, i32 0, i32 7
  %13 = load i32, ptr %matchLimit9, align 8
  store i32 %13, ptr %matchLimit, align 8
  ret void

lpad:                                             ; preds = %entry
  %14 = landingpad { ptr, i32 }
          cleanup
  %15 = extractvalue { ptr, i32 } %14, 0
  store ptr %15, ptr %exn.slot, align 8
  %16 = extractvalue { ptr, i32 } %14, 1
  store i32 %16, ptr %ehselector.slot, align 4
  %17 = getelementptr inbounds i8, ptr %this1, i64 16
  call void @_ZN6icu_7515UnicodeReplacerD2Ev(ptr noundef nonnull align 8 dereferenceable(8) %17) #9
  %18 = getelementptr inbounds i8, ptr %this1, i64 8
  call void @_ZN6icu_7514UnicodeMatcherD2Ev(ptr noundef nonnull align 8 dereferenceable(8) %18) #9
  call void @_ZN6icu_7514UnicodeFunctorD2Ev(ptr noundef nonnull align 8 dereferenceable(8) %this1) #9
  br label %eh.resume

eh.resume:                                        ; preds = %lpad
  %exn = load ptr, ptr %exn.slot, align 8
  %sel = load i32, ptr %ehselector.slot, align 4
  %lpad.val = insertvalue { ptr, i32 } poison, ptr %exn, 0
  %lpad.val10 = insertvalue { ptr, i32 } %lpad.val, i32 %sel, 1
  resume { ptr, i32 } %lpad.val10
}