; Function Attrs: mustprogress uwtable
define void @_ZN6icu_7513StringMatcherC2ERKS0_(ptr noundef nonnull align 8 dereferenceable(108) %this, ptr noundef nonnull align 8 dereferenceable(108) %o) unnamed_addr #1 align 2 personality ptr @__gxx_personality_v0 {
entry:
  %0 = getelementptr inbounds i8, ptr %this, i64 8
  %1 = getelementptr inbounds i8, ptr %this, i64 16
  store ptr getelementptr inbounds ({ [16 x ptr], [8 x ptr], [7 x ptr] }, ptr @_ZTVN6icu_7513StringMatcherE, i64 0, i32 0, i64 2), ptr %this, align 8
  store ptr getelementptr inbounds ({ [16 x ptr], [8 x ptr], [7 x ptr] }, ptr @_ZTVN6icu_7513StringMatcherE, i64 0, i32 1, i64 2), ptr %0, align 8
  store ptr getelementptr inbounds ({ [16 x ptr], [8 x ptr], [7 x ptr] }, ptr @_ZTVN6icu_7513StringMatcherE, i64 0, i32 2, i64 2), ptr %1, align 8
  %pattern = getelementptr inbounds i8, ptr %this, i64 24
  %pattern5 = getelementptr inbounds i8, ptr %o, i64 24
  invoke void @_ZN6icu_7513UnicodeStringC1ERKS0_(ptr noundef nonnull align 8 dereferenceable(64) %pattern, ptr noundef nonnull align 8 dereferenceable(64) %pattern5)
          to label %invoke.cont unwind label %lpad

invoke.cont:                                      ; preds = %entry
  %data = getelementptr inbounds i8, ptr %this, i64 88
  %data6 = getelementptr inbounds i8, ptr %o, i64 88
  %2 = load ptr, ptr %data6, align 8
  store ptr %2, ptr %data, align 8
  %segmentNumber = getelementptr inbounds i8, ptr %this, i64 96
  %segmentNumber7 = getelementptr inbounds i8, ptr %o, i64 96
  %3 = load i32, ptr %segmentNumber7, align 8
  store i32 %3, ptr %segmentNumber, align 8
  %matchStart = getelementptr inbounds i8, ptr %this, i64 100
  %matchStart8 = getelementptr inbounds i8, ptr %o, i64 100
  %4 = load i32, ptr %matchStart8, align 4
  store i32 %4, ptr %matchStart, align 4
  %matchLimit = getelementptr inbounds i8, ptr %this, i64 104
  %matchLimit9 = getelementptr inbounds i8, ptr %o, i64 104
  %5 = load i32, ptr %matchLimit9, align 8
  store i32 %5, ptr %matchLimit, align 8
  ret void

lpad:                                             ; preds = %entry
  %6 = landingpad { ptr, i32 }
          cleanup
  tail call void @_ZN6icu_7515UnicodeReplacerD2Ev(ptr noundef nonnull align 8 dereferenceable(8) %1) #13
  tail call void @_ZN6icu_7514UnicodeMatcherD2Ev(ptr noundef nonnull align 8 dereferenceable(8) %0) #13
  tail call void @_ZN6icu_7514UnicodeFunctorD2Ev(ptr noundef nonnull align 8 dereferenceable(8) %this) #13
  resume { ptr, i32 } %6
}